; Function Attrs: mustprogress nounwind uwtable
define internal noundef nonnull align 8 dereferenceable(8) ptr @"_ZN4llvm12function_refIFRNS_19TargetTransformInfoERNS_8FunctionEEE11callback_fnIZN12_GLOBAL__N_136SeparateConstOffsetFromGEPLegacyPass13runOnFunctionES4_E3$_0EES2_lS4_"(i64 noundef %0, ptr noundef nonnull align 8 dereferenceable(136) %1) #0 align 2 {
  %3 = inttoptr i64 %0 to ptr
  %.val = load ptr, ptr %3, align 8
  %4 = getelementptr i8, ptr %.val, i64 8
  %.val.val = load ptr, ptr %4, align 8
  %.val.val.val = load ptr, ptr %.val.val, align 8
  %5 = getelementptr i8, ptr %.val.val, i64 8
  %.val.val.val1 = load ptr, ptr %5, align 8
  %.not11.i.i.i.i = icmp ne ptr %.val.val.val, %.val.val.val1
  tail call void @llvm.assume(i1 %.not11.i.i.i.i)
  %6 = load ptr, ptr %.val.val.val, align 8
  %7 = icmp eq ptr %6, @_ZN4llvm30TargetTransformInfoWrapperPass2IDE
  br i1 %7, label %"_ZZN12_GLOBAL__N_136SeparateConstOffsetFromGEPLegacyPass13runOnFunctionERN4llvm8FunctionEENK3$_0clES3_.exit", label %.lr.ph.i.i.i.i

.lr.ph.i.i.i.i:                                   ; preds = %2, %.lr.ph.i.i.i.i
  %.sroa.07.012.i4.i.i.i = phi ptr [ %8, %.lr.ph.i.i.i.i ], [ %.val.val.val, %2 ]
  %8 = getelementptr inbounds i8, ptr %.sroa.07.012.i4.i.i.i, i64 16
  %.not.i.i.i.i = icmp ne ptr %8, %.val.val.val1
  tail call void @llvm.assume(i1 %.not.i.i.i.i)
  %9 = load ptr, ptr %8, align 8
  %10 = icmp eq ptr %9, @_ZN4llvm30TargetTransformInfoWrapperPass2IDE
  br i1 %10, label %"_ZZN12_GLOBAL__N_136SeparateConstOffsetFromGEPLegacyPass13runOnFunctionERN4llvm8FunctionEENK3$_0clES3_.exit", label %.lr.ph.i.i.i.i

"_ZZN12_GLOBAL__N_136SeparateConstOffsetFromGEPLegacyPass13runOnFunctionERN4llvm8FunctionEENK3$_0clES3_.exit": ; preds = %.lr.ph.i.i.i.i, %2
  %.sroa.07.012.i.lcssa.i.i.i = phi ptr [ %.val.val.val, %2 ], [ %8, %.lr.ph.i.i.i.i ]
  %11 = getelementptr inbounds nuw i8, ptr %.sroa.07.012.i.lcssa.i.i.i, i64 8
  %12 = load ptr, ptr %11, align 8
  %13 = load ptr, ptr %12, align 8
  %14 = getelementptr inbounds i8, ptr %13, i64 96
  %15 = load ptr, ptr %14, align 8
  %16 = tail call noundef nonnull align 8 dereferenceable(80) ptr %15(ptr noundef nonnull align 8 dereferenceable(28) %12, ptr noundef nonnull @_ZN4llvm30TargetTransformInfoWrapperPass2IDE) #19
  %17 = tail call noundef nonnull align 8 dereferenceable(8) ptr @_ZN4llvm30TargetTransformInfoWrapperPass6getTTIERKNS_8FunctionE(ptr noundef nonnull align 8 dereferenceable(80) %16, ptr noundef nonnull align 8 dereferenceable(136) %1) #19
  ret ptr %17
}